target datalayout = "e-m:e-p270:32:32-p271:32:32-p272:64:64-i64:64-i128:128-f80:128-n8:16:32:64-S128"
target triple = "x86_64-pc-linux-gnu"

%struct.big_div_struct = type { i64, i64, ptr, ptr, i64 }

; Function Attrs: nounwind sspstrong uwtable
define internal void @bary_small_rshift(ptr noundef %0, ptr noundef %1, i64 noundef %2, i32 noundef %3, i32 noundef %4) #0 {
  %6 = alloca ptr, align 8
  %7 = alloca ptr, align 8
  %8 = alloca i64, align 8
  %9 = alloca i32, align 4
  %10 = alloca i32, align 4
  %11 = alloca i64, align 8
  %12 = alloca i64, align 8
  %13 = alloca i32, align 4
  store ptr %0, ptr %6, align 8, !tbaa !24
  store ptr %1, ptr %7, align 8, !tbaa !24
  store i64 %2, ptr %8, align 8, !tbaa !7
  store i32 %3, ptr %9, align 4, !tbaa !19
  store i32 %4, ptr %10, align 4, !tbaa !19
  call void @llvm.lifetime.start.p0(i64 8, ptr %11) #24
  call void @llvm.lifetime.start.p0(i64 8, ptr %12) #24
  store i64 0, ptr %12, align 8, !tbaa !31
  %14 = load i32, ptr %10, align 4, !tbaa !19
  %15 = zext i32 %14 to i64
  %16 = add i64 %15, 0
  %17 = shl i64 %16, 32
  store i64 %17, ptr %12, align 8, !tbaa !31
  store i64 0, ptr %11, align 8, !tbaa !7
  br label %18

18:                                               ; preds = %50, %5
  %19 = load i64, ptr %11, align 8, !tbaa !7
  %20 = load i64, ptr %8, align 8, !tbaa !7
  %21 = icmp ult i64 %19, %20
  br i1 %21, label %22, label %53

22:                                               ; preds = %18
  call void @llvm.lifetime.start.p0(i64 4, ptr %13) #24
  %23 = load ptr, ptr %7, align 8, !tbaa !24
  %24 = load i64, ptr %8, align 8, !tbaa !7
  %25 = load i64, ptr %11, align 8, !tbaa !7
  %26 = sub i64 %24, %25
  %27 = sub i64 %26, 1
  %28 = getelementptr i32, ptr %23, i64 %27
  %29 = load i32, ptr %28, align 4, !tbaa !19
  store i32 %29, ptr %13, align 4, !tbaa !19
  %30 = load i64, ptr %12, align 8, !tbaa !31
  %31 = load i32, ptr %13, align 4, !tbaa !19
  %32 = zext i32 %31 to i64
  %33 = or i64 %30, %32
  %34 = load i32, ptr %9, align 4, !tbaa !19
  %35 = zext i32 %34 to i64
  %36 = lshr i64 %33, %35
  store i64 %36, ptr %12, align 8, !tbaa !31
  %37 = load i64, ptr %12, align 8, !tbaa !31
  %38 = and i64 %37, 4294967295
  %39 = trunc i64 %38 to i32
  %40 = load ptr, ptr %6, align 8, !tbaa !24
  %41 = load i64, ptr %8, align 8, !tbaa !7
  %42 = load i64, ptr %11, align 8, !tbaa !7
  %43 = sub i64 %41, %42
  %44 = sub i64 %43, 1
  %45 = getelementptr i32, ptr %40, i64 %44
  store i32 %39, ptr %45, align 4, !tbaa !19
  %46 = load i32, ptr %13, align 4, !tbaa !19
  %47 = zext i32 %46 to i64
  %48 = add i64 %47, 0
  %49 = shl i64 %48, 32
  store i64 %49, ptr %12, align 8, !tbaa !31
  call void @llvm.lifetime.end.p0(i64 4, ptr %13) #24
  br label %50

50:                                               ; preds = %22
  %51 = load i64, ptr %11, align 8, !tbaa !7
  %52 = add i64 %51, 1
  store i64 %52, ptr %11, align 8, !tbaa !7
  br label %18, !llvm.loop !248

53:                                               ; preds = %18
  call void @llvm.lifetime.end.p0(i64 8, ptr %12) #24
  call void @llvm.lifetime.end.p0(i64 8, ptr %11) #24
  ret void
}

; Function Attrs: inlinehint nounwind sspstrong uwtable
define internal i32 @nlz_int32(i32 noundef %0) #2 {
  %2 = alloca i32, align 4
  store i32 %0, ptr %2, align 4, !tbaa !19
  %3 = load i32, ptr %2, align 4, !tbaa !19
  %4 = icmp ne i32 %3, 0
  br i1 %4, label %5, label %8

5:                                                ; preds = %1
  %6 = load i32, ptr %2, align 4, !tbaa !19
  %7 = call i32 @llvm.ctlz.i32(i32 %6, i1 true)
  br label %9

8:                                                ; preds = %1
  br label %9

9:                                                ; preds = %8, %5
  %10 = phi i32 [ %7, %5 ], [ 32, %8 ]
  ret i32 %10
}

; Function Attrs: nounwind sspstrong uwtable
define internal i32 @bigdivrem_single1(ptr noundef %0, ptr noundef %1, i64 noundef %2, i32 noundef %3, i32 noundef %4) #0 {
  %6 = alloca i32, align 4
  %7 = alloca ptr, align 8
  %8 = alloca ptr, align 8
  %9 = alloca i64, align 8
  %10 = alloca i32, align 4
  %11 = alloca i32, align 4
  %12 = alloca i32, align 4
  %13 = alloca i64, align 8
  %14 = alloca i64, align 8
  store ptr %0, ptr %7, align 8, !tbaa !24
  store ptr %1, ptr %8, align 8, !tbaa !24
  store i64 %2, ptr %9, align 8, !tbaa !7
  store i32 %3, ptr %10, align 4, !tbaa !19
  store i32 %4, ptr %11, align 4, !tbaa !19
  %15 = load i32, ptr %11, align 4, !tbaa !19
  %16 = load i32, ptr %11, align 4, !tbaa !19
  %17 = sub i32 %16, 1
  %18 = and i32 %15, %17
  %19 = icmp eq i32 %18, 0
  br i1 %19, label %20, label %36

20:                                               ; preds = %5
  call void @llvm.lifetime.start.p0(i64 4, ptr %12) #24
  %21 = load ptr, ptr %8, align 8, !tbaa !24
  %22 = getelementptr i32, ptr %21, i64 0
  %23 = load i32, ptr %22, align 4, !tbaa !19
  %24 = load i32, ptr %11, align 4, !tbaa !19
  %25 = sub i32 %24, 1
  %26 = and i32 %23, %25
  store i32 %26, ptr %12, align 4, !tbaa !19
  %27 = load ptr, ptr %7, align 8, !tbaa !24
  %28 = load ptr, ptr %8, align 8, !tbaa !24
  %29 = load i64, ptr %9, align 8, !tbaa !7
  %30 = load i32, ptr %11, align 4, !tbaa !19
  %31 = call i32 @nlz_int32(i32 noundef %30)
  %32 = sub i32 32, %31
  %33 = sub i32 %32, 1
  %34 = load i32, ptr %10, align 4, !tbaa !19
  call void @bary_small_rshift(ptr noundef %27, ptr noundef %28, i64 noundef %29, i32 noundef %33, i32 noundef %34)
  %35 = load i32, ptr %12, align 4, !tbaa !19
  store i32 %35, ptr %6, align 4
  call void @llvm.lifetime.end.p0(i64 4, ptr %12) #24
  br label %77

36:                                               ; preds = %5
  call void @llvm.lifetime.start.p0(i64 8, ptr %13) #24
  call void @llvm.lifetime.start.p0(i64 8, ptr %14) #24
  %37 = load i32, ptr %10, align 4, !tbaa !19
  %38 = zext i32 %37 to i64
  store i64 %38, ptr %14, align 8, !tbaa !31
  store i64 0, ptr %13, align 8, !tbaa !7
  br label %39

39:                                               ; preds = %71, %36
  %40 = load i64, ptr %13, align 8, !tbaa !7
  %41 = load i64, ptr %9, align 8, !tbaa !7
  %42 = icmp ult i64 %40, %41
  br i1 %42, label %43, label %74

43:                                               ; preds = %39
  %44 = load i64, ptr %14, align 8, !tbaa !31
  %45 = add i64 %44, 0
  %46 = shl i64 %45, 32
  %47 = load ptr, ptr %8, align 8, !tbaa !24
  %48 = load i64, ptr %9, align 8, !tbaa !7
  %49 = load i64, ptr %13, align 8, !tbaa !7
  %50 = sub i64 %48, %49
  %51 = sub i64 %50, 1
  %52 = getelementptr i32, ptr %47, i64 %51
  %53 = load i32, ptr %52, align 4, !tbaa !19
  %54 = zext i32 %53 to i64
  %55 = add i64 %46, %54
  store i64 %55, ptr %14, align 8, !tbaa !31
  %56 = load i64, ptr %14, align 8, !tbaa !31
  %57 = load i32, ptr %11, align 4, !tbaa !19
  %58 = zext i32 %57 to i64
  %59 = udiv i64 %56, %58
  %60 = trunc i64 %59 to i32
  %61 = load ptr, ptr %7, align 8, !tbaa !24
  %62 = load i64, ptr %9, align 8, !tbaa !7
  %63 = load i64, ptr %13, align 8, !tbaa !7
  %64 = sub i64 %62, %63
  %65 = sub i64 %64, 1
  %66 = getelementptr i32, ptr %61, i64 %65
  store i32 %60, ptr %66, align 4, !tbaa !19
  %67 = load i32, ptr %11, align 4, !tbaa !19
  %68 = zext i32 %67 to i64
  %69 = load i64, ptr %14, align 8, !tbaa !31
  %70 = urem i64 %69, %68
  store i64 %70, ptr %14, align 8, !tbaa !31
  br label %71

71:                                               ; preds = %43
  %72 = load i64, ptr %13, align 8, !tbaa !7
  %73 = add i64 %72, 1
  store i64 %73, ptr %13, align 8, !tbaa !7
  br label %39, !llvm.loop !249

74:                                               ; preds = %39
  %75 = load i64, ptr %14, align 8, !tbaa !31
  %76 = trunc i64 %75 to i32
  store i32 %76, ptr %6, align 4
  call void @llvm.lifetime.end.p0(i64 8, ptr %14) #24
  call void @llvm.lifetime.end.p0(i64 8, ptr %13) #24
  br label %77

77:                                               ; preds = %74, %20
  %78 = load i32, ptr %6, align 4
  ret i32 %78
}

; Function Attrs: nounwind sspstrong uwtable
define internal void @bigdivrem_restoring(ptr noundef %0, i64 noundef %1, ptr noundef %2, i64 noundef %3) #0 {
  %5 = alloca ptr, align 8
  %6 = alloca i64, align 8
  %7 = alloca ptr, align 8
  %8 = alloca i64, align 8
  %9 = alloca %struct.big_div_struct, align 8
  %10 = alloca i64, align 8
  %11 = alloca i32, align 4
  %12 = alloca i32, align 4
  store ptr %0, ptr %5, align 8, !tbaa !24
  store i64 %1, ptr %6, align 8, !tbaa !7
  store ptr %2, ptr %7, align 8, !tbaa !24
  store i64 %3, ptr %8, align 8, !tbaa !7
  call void @llvm.lifetime.start.p0(i64 40, ptr %9) #24
  call void @llvm.lifetime.start.p0(i64 8, ptr %10) #24
  store i64 0, ptr %10, align 8, !tbaa !7
  br label %13

13:                                               ; preds = %21, %4
  %14 = load ptr, ptr %7, align 8, !tbaa !24
  %15 = load i64, ptr %10, align 8, !tbaa !7
  %16 = getelementptr i32, ptr %14, i64 %15
  %17 = load i32, ptr %16, align 4, !tbaa !19
  %18 = icmp ne i32 %17, 0
  %19 = xor i1 %18, true
  br i1 %19, label %20, label %24

20:                                               ; preds = %13
  br label %21

21:                                               ; preds = %20
  %22 = load i64, ptr %10, align 8, !tbaa !7
  %23 = add i64 %22, 1
  store i64 %23, ptr %10, align 8, !tbaa !7
  br label %13, !llvm.loop !251

24:                                               ; preds = %13
  %25 = load i64, ptr %10, align 8, !tbaa !7
  %26 = add i64 %25, 1
  %27 = load i64, ptr %8, align 8, !tbaa !7
  %28 = icmp eq i64 %26, %27
  br i1 %28, label %29, label %53

29:                                               ; preds = %24
  call void @llvm.lifetime.start.p0(i64 4, ptr %11) #24
  %30 = load ptr, ptr %5, align 8, !tbaa !24
  %31 = load i64, ptr %8, align 8, !tbaa !7
  %32 = getelementptr i32, ptr %30, i64 %31
  %33 = load ptr, ptr %5, align 8, !tbaa !24
  %34 = load i64, ptr %10, align 8, !tbaa !7
  %35 = getelementptr i32, ptr %33, i64 %34
  %36 = load i64, ptr %6, align 8, !tbaa !7
  %37 = load i64, ptr %8, align 8, !tbaa !7
  %38 = sub i64 %36, %37
  %39 = load ptr, ptr %5, align 8, !tbaa !24
  %40 = load i64, ptr %6, align 8, !tbaa !7
  %41 = sub i64 %40, 1
  %42 = getelementptr i32, ptr %39, i64 %41
  %43 = load i32, ptr %42, align 4, !tbaa !19
  %44 = load ptr, ptr %7, align 8, !tbaa !24
  %45 = load i64, ptr %10, align 8, !tbaa !7
  %46 = getelementptr i32, ptr %44, i64 %45
  %47 = load i32, ptr %46, align 4, !tbaa !19
  %48 = call i32 @bigdivrem_single1(ptr noundef %32, ptr noundef %35, i64 noundef %38, i32 noundef %43, i32 noundef %47)
  store i32 %48, ptr %11, align 4, !tbaa !19
  %49 = load i32, ptr %11, align 4, !tbaa !19
  %50 = load ptr, ptr %5, align 8, !tbaa !24
  %51 = load i64, ptr %10, align 8, !tbaa !7
  %52 = getelementptr i32, ptr %50, i64 %51
  store i32 %49, ptr %52, align 4, !tbaa !19
  store i32 1, ptr %12, align 4
  call void @llvm.lifetime.end.p0(i64 4, ptr %11) #24
  br label %90

53:                                               ; preds = %24
  %54 = load i64, ptr %8, align 8, !tbaa !7
  %55 = load i64, ptr %10, align 8, !tbaa !7
  %56 = sub i64 %54, %55
  %57 = getelementptr inbounds nuw %struct.big_div_struct, ptr %9, i32 0, i32 0
  store i64 %56, ptr %57, align 8, !tbaa !252
  %58 = load ptr, ptr %5, align 8, !tbaa !24
  %59 = load i64, ptr %10, align 8, !tbaa !7
  %60 = getelementptr i32, ptr %58, i64 %59
  %61 = getelementptr inbounds nuw %struct.big_div_struct, ptr %9, i32 0, i32 3
  store ptr %60, ptr %61, align 8, !tbaa !254
  %62 = load ptr, ptr %7, align 8, !tbaa !24
  %63 = load i64, ptr %10, align 8, !tbaa !7
  %64 = getelementptr i32, ptr %62, i64 %63
  %65 = getelementptr inbounds nuw %struct.big_div_struct, ptr %9, i32 0, i32 2
  store ptr %64, ptr %65, align 8, !tbaa !255
  %66 = getelementptr inbounds nuw %struct.big_div_struct, ptr %9, i32 0, i32 4
  store volatile i64 0, ptr %66, align 8, !tbaa !256
  %67 = load i64, ptr %6, align 8, !tbaa !7
  %68 = load i64, ptr %10, align 8, !tbaa !7
  %69 = sub i64 %67, %68
  %70 = getelementptr inbounds nuw %struct.big_div_struct, ptr %9, i32 0, i32 1
  store i64 %69, ptr %70, align 8, !tbaa !257
  %71 = getelementptr inbounds nuw %struct.big_div_struct, ptr %9, i32 0, i32 1
  %72 = load i64, ptr %71, align 8, !tbaa !257
  %73 = icmp ugt i64 %72, 10000
  br i1 %73, label %78, label %74

74:                                               ; preds = %53
  %75 = getelementptr inbounds nuw %struct.big_div_struct, ptr %9, i32 0, i32 0
  %76 = load i64, ptr %75, align 8, !tbaa !252
  %77 = icmp ugt i64 %76, 10000
  br i1 %77, label %78, label %87

78:                                               ; preds = %74, %53
  br label %79

79:                                               ; preds = %85, %78
  %80 = getelementptr inbounds nuw %struct.big_div_struct, ptr %9, i32 0, i32 4
  store volatile i64 0, ptr %80, align 8, !tbaa !256
  %81 = call ptr @rb_nogvl(ptr noundef @bigdivrem1, ptr noundef %9, ptr noundef @rb_big_stop, ptr noundef %9, i32 noundef 6)
  %82 = getelementptr inbounds nuw %struct.big_div_struct, ptr %9, i32 0, i32 4
  %83 = load volatile i64, ptr %82, align 8, !tbaa !256
  %84 = icmp eq i64 %83, 20
  br i1 %84, label %85, label %86

85:                                               ; preds = %79
  br label %79

86:                                               ; preds = %79
  br label %89

87:                                               ; preds = %74
  %88 = call ptr @bigdivrem1(ptr noundef %9)
  br label %89

89:                                               ; preds = %87, %86
  store i32 0, ptr %12, align 4
  br label %90

90:                                               ; preds = %89, %29
  call void @llvm.lifetime.end.p0(i64 8, ptr %10) #24
  call void @llvm.lifetime.end.p0(i64 40, ptr %9) #24
  %91 = load i32, ptr %12, align 4
  switch i32 %91, label %93 [
    i32 0, label %92
    i32 1, label %92
  ]

92:                                               ; preds = %90, %90
  ret void

93:                                               ; preds = %90
  unreachable
}