; Function Attrs: nounwind sspstrong uwtable
define internal fastcc void @bigdivrem_restoring(ptr noundef %0, i64 noundef %1, ptr noundef %2, i64 noundef %3) unnamed_addr #0 {
  %5 = alloca %struct.big_div_struct, align 8
  call void @llvm.lifetime.start.p0(i64 40, ptr nonnull %5) #27
  br label %6

6:                                                ; preds = %6, %4
  %.0 = phi i64 [ 0, %4 ], [ %9, %6 ]
  %7 = getelementptr i32, ptr %2, i64 %.0
  %8 = load i32, ptr %7, align 4, !tbaa !18
  %.not = icmp eq i32 %8, 0
  %9 = add i64 %.0, 1
  br i1 %.not, label %6, label %10, !llvm.loop !269

10:                                               ; preds = %6
  %11 = icmp eq i64 %9, %3
  br i1 %11, label %12, label %57

12:                                               ; preds = %10
  %13 = getelementptr i32, ptr %0, i64 %3
  %14 = getelementptr i32, ptr %0, i64 %.0
  %15 = sub i64 %1, %3
  %16 = getelementptr i32, ptr %0, i64 %1
  %17 = getelementptr i8, ptr %16, i64 -4
  %18 = load i32, ptr %17, align 4, !tbaa !18
  %19 = tail call range(i32 1, 33) i32 @llvm.ctpop.i32(i32 %8)
  %20 = icmp samesign ult i32 %19, 2
  br i1 %20, label %21, label %40

21:                                               ; preds = %12
  %22 = add i32 %8, -1
  %23 = load i32, ptr %14, align 4, !tbaa !18
  %24 = and i32 %23, %22
  %.not.i.i = icmp eq i64 %1, %3
  br i1 %.not.i.i, label %bigdivrem_single1.exit, label %.lr.ph.i.i

.lr.ph.i.i:                                       ; preds = %21
  %25 = tail call range(i32 0, 33) i32 @llvm.ctlz.i32(i32 %8, i1 true)
  %26 = xor i32 %25, 31
  %27 = zext i32 %18 to i64
  %28 = zext nneg i32 %26 to i64
  br label %29

29:                                               ; preds = %29, %.lr.ph.i.i
  %.017.i.i = phi i64 [ 0, %.lr.ph.i.i ], [ %39, %29 ]
  %.014.in16.i.i = phi i64 [ %27, %.lr.ph.i.i ], [ %34, %29 ]
  %.014.i.i = shl nuw i64 %.014.in16.i.i, 32
  %30 = xor i64 %.017.i.i, -1
  %31 = add i64 %15, %30
  %32 = getelementptr i32, ptr %14, i64 %31
  %33 = load i32, ptr %32, align 4, !tbaa !18
  %34 = zext i32 %33 to i64
  %35 = or disjoint i64 %.014.i.i, %34
  %36 = lshr i64 %35, %28
  %37 = trunc i64 %36 to i32
  %38 = getelementptr i32, ptr %13, i64 %31
  store i32 %37, ptr %38, align 4, !tbaa !18
  %39 = add nuw i64 %.017.i.i, 1
  %exitcond.not.i.i = icmp eq i64 %39, %15
  br i1 %exitcond.not.i.i, label %bigdivrem_single1.exit, label %29, !llvm.loop !55

40:                                               ; preds = %12
  %.not.i = icmp eq i64 %1, %3
  br i1 %.not.i, label %bigdivrem_single1.exit, label %.lr.ph.i

.lr.ph.i:                                         ; preds = %40
  %41 = zext i32 %18 to i64
  %42 = zext i32 %8 to i64
  br label %43

43:                                               ; preds = %43, %.lr.ph.i
  %.030.i = phi i64 [ %41, %.lr.ph.i ], [ %54, %43 ]
  %.02629.i = phi i64 [ 0, %.lr.ph.i ], [ %55, %43 ]
  %44 = shl nuw i64 %.030.i, 32
  %45 = xor i64 %.02629.i, -1
  %46 = add i64 %15, %45
  %47 = getelementptr i32, ptr %14, i64 %46
  %48 = load i32, ptr %47, align 4, !tbaa !18
  %49 = zext i32 %48 to i64
  %50 = or disjoint i64 %44, %49
  %51 = udiv i64 %50, %42
  %52 = trunc i64 %51 to i32
  %53 = getelementptr i32, ptr %13, i64 %46
  store i32 %52, ptr %53, align 4, !tbaa !18
  %54 = urem i64 %50, %42
  %55 = add nuw i64 %.02629.i, 1
  %exitcond.not.i = icmp eq i64 %55, %15
  br i1 %exitcond.not.i, label %._crit_edge.loopexit.i, label %43, !llvm.loop !54

._crit_edge.loopexit.i:                           ; preds = %43
  %56 = trunc nuw i64 %54 to i32
  br label %bigdivrem_single1.exit

bigdivrem_single1.exit:                           ; preds = %29, %21, %40, %._crit_edge.loopexit.i
  %.027.i = phi i32 [ %24, %21 ], [ %18, %40 ], [ %56, %._crit_edge.loopexit.i ], [ %24, %29 ]
  store i32 %.027.i, ptr %14, align 4, !tbaa !18
  br label %.loopexit

57:                                               ; preds = %10
  %58 = getelementptr i32, ptr %2, i64 %.0
  %59 = sub i64 %3, %.0
  store i64 %59, ptr %5, align 8, !tbaa !270
  %60 = getelementptr i32, ptr %0, i64 %.0
  %61 = getelementptr inbounds nuw i8, ptr %5, i64 24
  store ptr %60, ptr %61, align 8, !tbaa !272
  %62 = getelementptr inbounds nuw i8, ptr %5, i64 16
  store ptr %58, ptr %62, align 8, !tbaa !273
  %63 = getelementptr inbounds nuw i8, ptr %5, i64 32
  store volatile i64 0, ptr %63, align 8, !tbaa !274
  %64 = sub i64 %1, %.0
  %65 = getelementptr inbounds nuw i8, ptr %5, i64 8
  store i64 %64, ptr %65, align 8, !tbaa !275
  %66 = icmp ugt i64 %64, 10000
  %67 = icmp ugt i64 %59, 10000
  %or.cond = or i1 %66, %67
  br i1 %or.cond, label %.preheader, label %71

.preheader:                                       ; preds = %57, %.preheader
  store volatile i64 0, ptr %63, align 8, !tbaa !274
  %68 = call ptr @rb_nogvl(ptr noundef nonnull @bigdivrem1, ptr noundef nonnull %5, ptr noundef nonnull @rb_big_stop, ptr noundef nonnull %5, i32 noundef 6) #27
  %69 = load volatile i64, ptr %63, align 8, !tbaa !274
  %70 = icmp eq i64 %69, 20
  br i1 %70, label %.preheader, label %.loopexit

71:                                               ; preds = %57
  %72 = call ptr @bigdivrem1(ptr noundef nonnull %5)
  br label %.loopexit

.loopexit:                                        ; preds = %.preheader, %71, %bigdivrem_single1.exit
  call void @llvm.lifetime.end.p0(i64 40, ptr nonnull %5) #27
  ret void
}